; Function Attrs: mustprogress nofree nounwind willreturn memory(read, inaccessiblemem: none) uwtable
define noundef zeroext i1 @_ZN7rocksdbneERKNS_16BlobFileAdditionES2_(ptr noundef nonnull readonly align 8 captures(none) dereferenceable(88) %0, ptr noundef nonnull readonly align 8 captures(none) dereferenceable(88) %1) local_unnamed_addr #6 personality ptr @__gxx_personality_v0 {
  %3 = load i64, ptr %0, align 8, !tbaa !4
  %4 = load i64, ptr %1, align 8, !tbaa !4
  %5 = icmp eq i64 %3, %4
  br i1 %5, label %6, label %_ZN7rocksdbeqERKNS_16BlobFileAdditionES2_.exit

6:                                                ; preds = %2
  %7 = getelementptr inbounds nuw i8, ptr %0, i64 8
  %8 = load i64, ptr %7, align 8, !tbaa !17
  %9 = getelementptr inbounds nuw i8, ptr %1, i64 8
  %10 = load i64, ptr %9, align 8, !tbaa !17
  %11 = icmp eq i64 %8, %10
  br i1 %11, label %12, label %_ZN7rocksdbeqERKNS_16BlobFileAdditionES2_.exit

12:                                               ; preds = %6
  %13 = getelementptr inbounds nuw i8, ptr %0, i64 16
  %14 = load i64, ptr %13, align 8, !tbaa !18
  %15 = getelementptr inbounds nuw i8, ptr %1, i64 16
  %16 = load i64, ptr %15, align 8, !tbaa !18
  %17 = icmp eq i64 %14, %16
  br i1 %17, label %18, label %_ZN7rocksdbeqERKNS_16BlobFileAdditionES2_.exit

18:                                               ; preds = %12
  %19 = getelementptr inbounds nuw i8, ptr %0, i64 24
  %20 = getelementptr inbounds nuw i8, ptr %1, i64 24
  %21 = getelementptr inbounds nuw i8, ptr %0, i64 32
  %22 = load i64, ptr %21, align 8, !tbaa !16
  %23 = getelementptr inbounds nuw i8, ptr %1, i64 32
  %24 = load i64, ptr %23, align 8, !tbaa !16
  %25 = icmp eq i64 %22, %24
  br i1 %25, label %26, label %_ZN7rocksdbeqERKNS_16BlobFileAdditionES2_.exit

26:                                               ; preds = %18
  %27 = icmp eq i64 %22, 0
  br i1 %27, label %_ZSteqIcEN9__gnu_cxx11__enable_ifIXsr9__is_charIT_EE7__valueEbE6__typeERKNSt7__cxx1112basic_stringIS2_St11char_traitsIS2_ESaIS2_EEESC_.exit.thread.i, label %_ZSteqIcEN9__gnu_cxx11__enable_ifIXsr9__is_charIT_EE7__valueEbE6__typeERKNSt7__cxx1112basic_stringIS2_St11char_traitsIS2_ESaIS2_EEESC_.exit.i

_ZSteqIcEN9__gnu_cxx11__enable_ifIXsr9__is_charIT_EE7__valueEbE6__typeERKNSt7__cxx1112basic_stringIS2_St11char_traitsIS2_ESaIS2_EEESC_.exit.i: ; preds = %26
  %28 = load ptr, ptr %20, align 8, !tbaa !19
  %29 = load ptr, ptr %19, align 8, !tbaa !19
  %bcmp.i.i = tail call i32 @bcmp(ptr %29, ptr %28, i64 %22)
  %30 = icmp eq i32 %bcmp.i.i, 0
  br i1 %30, label %_ZSteqIcEN9__gnu_cxx11__enable_ifIXsr9__is_charIT_EE7__valueEbE6__typeERKNSt7__cxx1112basic_stringIS2_St11char_traitsIS2_ESaIS2_EEESC_.exit.thread.i, label %_ZN7rocksdbeqERKNS_16BlobFileAdditionES2_.exit

_ZSteqIcEN9__gnu_cxx11__enable_ifIXsr9__is_charIT_EE7__valueEbE6__typeERKNSt7__cxx1112basic_stringIS2_St11char_traitsIS2_ESaIS2_EEESC_.exit.thread.i: ; preds = %_ZSteqIcEN9__gnu_cxx11__enable_ifIXsr9__is_charIT_EE7__valueEbE6__typeERKNSt7__cxx1112basic_stringIS2_St11char_traitsIS2_ESaIS2_EEESC_.exit.i, %26
  %31 = getelementptr inbounds nuw i8, ptr %0, i64 56
  %32 = getelementptr inbounds nuw i8, ptr %1, i64 56
  %33 = getelementptr inbounds nuw i8, ptr %0, i64 64
  %34 = load i64, ptr %33, align 8, !tbaa !16
  %35 = getelementptr inbounds nuw i8, ptr %1, i64 64
  %36 = load i64, ptr %35, align 8, !tbaa !16
  %37 = icmp eq i64 %34, %36
  br i1 %37, label %38, label %_ZN7rocksdbeqERKNS_16BlobFileAdditionES2_.exit

38:                                               ; preds = %_ZSteqIcEN9__gnu_cxx11__enable_ifIXsr9__is_charIT_EE7__valueEbE6__typeERKNSt7__cxx1112basic_stringIS2_St11char_traitsIS2_ESaIS2_EEESC_.exit.thread.i
  %39 = icmp eq i64 %34, 0
  br i1 %39, label %_ZN7rocksdbeqERKNS_16BlobFileAdditionES2_.exit, label %40

40:                                               ; preds = %38
  %41 = load ptr, ptr %32, align 8, !tbaa !19
  %42 = load ptr, ptr %31, align 8, !tbaa !19
  %bcmp.i10.i = tail call i32 @bcmp(ptr %42, ptr %41, i64 %34)
  %43 = icmp ne i32 %bcmp.i10.i, 0
  br label %_ZN7rocksdbeqERKNS_16BlobFileAdditionES2_.exit

_ZN7rocksdbeqERKNS_16BlobFileAdditionES2_.exit:   ; preds = %2, %6, %12, %18, %_ZSteqIcEN9__gnu_cxx11__enable_ifIXsr9__is_charIT_EE7__valueEbE6__typeERKNSt7__cxx1112basic_stringIS2_St11char_traitsIS2_ESaIS2_EEESC_.exit.i, %_ZSteqIcEN9__gnu_cxx11__enable_ifIXsr9__is_charIT_EE7__valueEbE6__typeERKNSt7__cxx1112basic_stringIS2_St11char_traitsIS2_ESaIS2_EEESC_.exit.thread.i, %38, %40
  %44 = phi i1 [ true, %_ZSteqIcEN9__gnu_cxx11__enable_ifIXsr9__is_charIT_EE7__valueEbE6__typeERKNSt7__cxx1112basic_stringIS2_St11char_traitsIS2_ESaIS2_EEESC_.exit.i ], [ true, %12 ], [ true, %6 ], [ true, %2 ], [ true, %_ZSteqIcEN9__gnu_cxx11__enable_ifIXsr9__is_charIT_EE7__valueEbE6__typeERKNSt7__cxx1112basic_stringIS2_St11char_traitsIS2_ESaIS2_EEESC_.exit.thread.i ], [ %43, %40 ], [ false, %38 ], [ true, %18 ]
  ret i1 %44
}